; Function Attrs: nounwind uwtable
define hidden void @uv__server_io(ptr noundef %0, ptr noundef %1, i32 noundef %2) local_unnamed_addr #0 {
  %4 = getelementptr inbounds i8, ptr %1, i64 -136
  %5 = getelementptr inbounds nuw i8, ptr %1, i64 48
  %6 = load i32, ptr %5, align 8
  %7 = tail call i32 @uv__accept(i32 noundef %6) #12
  %8 = and i32 %7, -2
  %or.cond = icmp eq i32 %8, -24
  br i1 %or.cond, label %9, label %uv__emfile_trick.exit

9:                                                ; preds = %3
  %10 = getelementptr inbounds nuw i8, ptr %0, i64 768
  %11 = load i32, ptr %10, align 8
  %12 = icmp eq i32 %11, -1
  br i1 %12, label %uv__emfile_trick.exit.thread, label %13

13:                                               ; preds = %9
  %14 = tail call i32 @uv__close(i32 noundef %11) #12
  store i32 -1, ptr %10, align 8
  br label %15

15:                                               ; preds = %20, %13
  %16 = tail call i32 @uv__accept(i32 noundef %6) #12
  %17 = icmp sgt i32 %16, -1
  br i1 %17, label %18, label %20

18:                                               ; preds = %15
  %19 = tail call i32 @uv__close(i32 noundef %16) #12
  br label %20

20:                                               ; preds = %18, %15
  %21 = icmp eq i32 %16, -4
  %22 = or i1 %17, %21
  br i1 %22, label %15, label %23

23:                                               ; preds = %20
  %24 = tail call i32 @uv__open_cloexec(ptr noundef nonnull @.str.1, i32 noundef 0) #12
  %25 = icmp sgt i32 %24, -1
  br i1 %25, label %26, label %uv__emfile_trick.exit.thread

26:                                               ; preds = %23
  store i32 %24, ptr %10, align 8
  br label %uv__emfile_trick.exit.thread

uv__emfile_trick.exit:                            ; preds = %3
  %27 = icmp slt i32 %7, 0
  br i1 %27, label %uv__emfile_trick.exit.thread, label %28

28:                                               ; preds = %uv__emfile_trick.exit
  %29 = getelementptr inbounds nuw i8, ptr %1, i64 100
  store i32 %7, ptr %29, align 4
  %30 = getelementptr inbounds nuw i8, ptr %1, i64 88
  %31 = load ptr, ptr %30, align 8
  tail call void %31(ptr noundef nonnull %4, i32 noundef 0) #12
  %32 = load i32, ptr %29, align 4
  %.not = icmp eq i32 %32, -1
  br i1 %.not, label %uv__emfile_trick.exit.thread, label %33

33:                                               ; preds = %28
  tail call void @uv__io_stop(ptr noundef %0, ptr noundef nonnull %1, i32 noundef 1) #12
  br label %uv__emfile_trick.exit.thread

uv__emfile_trick.exit.thread:                     ; preds = %23, %26, %9, %28, %33, %uv__emfile_trick.exit
  ret void
}